target datalayout = "e-m:e-p270:32:32-p271:32:32-p272:64:64-i64:64-i128:128-f80:128-n8:16:32:64-S128"
target triple = "x86_64-pc-linux-gnu"

; Function Attrs: mustprogress nounwind uwtable
define internal noundef i32 @_ZN11duckdb_zstdL11ERR_isErrorEm(i64 noundef %0) #4 {
  %2 = alloca i64, align 8
  store i64 %0, ptr %2, align 8, !tbaa !10
  %3 = load i64, ptr %2, align 8, !tbaa !10
  %4 = icmp ugt i64 %3, -120
  %5 = zext i1 %4 to i32
  ret i32 %5
}

; Function Attrs: mustprogress uwtable
define noundef i64 @_ZN11duckdb_zstd28ZBUFF_compressInitDictionaryEPNS_11ZSTD_CCtx_sEPKvmi(ptr noundef %0, ptr noundef %1, i64 noundef %2, i32 noundef %3) #0 {
  %5 = alloca i64, align 8
  %6 = alloca ptr, align 8
  %7 = alloca ptr, align 8
  %8 = alloca i64, align 8
  %9 = alloca i32, align 4
  %10 = alloca i64, align 8
  %11 = alloca i32, align 4
  %12 = alloca i64, align 8
  %13 = alloca i64, align 8
  store ptr %0, ptr %6, align 8, !tbaa !8
  store ptr %1, ptr %7, align 8, !tbaa !4
  store i64 %2, ptr %8, align 8, !tbaa !10
  store i32 %3, ptr %9, align 4, !tbaa !15
  br label %14

14:                                               ; preds = %4
  call void @llvm.lifetime.start.p0(i64 8, ptr %10) #5
  %15 = load ptr, ptr %6, align 8, !tbaa !8
  %16 = call noundef i64 @_ZN11duckdb_zstd15ZSTD_CCtx_resetEPNS_11ZSTD_CCtx_sENS_19ZSTD_ResetDirectiveE(ptr noundef %15, i32 noundef 1)
  store i64 %16, ptr %10, align 8, !tbaa !10
  %17 = load i64, ptr %10, align 8, !tbaa !10
  %18 = call noundef i32 @_ZN11duckdb_zstdL11ERR_isErrorEm(i64 noundef %17)
  %19 = icmp ne i32 %18, 0
  br i1 %19, label %20, label %34

20:                                               ; preds = %14
  br label %21

21:                                               ; preds = %20
  br label %22

22:                                               ; preds = %21
  br label %23

23:                                               ; preds = %22
  br label %24

24:                                               ; preds = %23
  br label %25

25:                                               ; preds = %24
  br label %26

26:                                               ; preds = %25
  br label %27

27:                                               ; preds = %26
  br label %28

28:                                               ; preds = %27
  br label %29

29:                                               ; preds = %28
  br label %30

30:                                               ; preds = %29
  br label %31

31:                                               ; preds = %30
  br label %32

32:                                               ; preds = %31
  %33 = load i64, ptr %10, align 8, !tbaa !10
  store i64 %33, ptr %5, align 8
  store i32 1, ptr %11, align 4
  br label %35

34:                                               ; preds = %14
  store i32 0, ptr %11, align 4
  br label %35

35:                                               ; preds = %34, %32
  call void @llvm.lifetime.end.p0(i64 8, ptr %10) #5
  %36 = load i32, ptr %11, align 4
  switch i32 %36, label %94 [
    i32 0, label %37
    i32 1, label %92
  ]

37:                                               ; preds = %35
  br label %38

38:                                               ; preds = %37
  br label %39

39:                                               ; preds = %38
  call void @llvm.lifetime.start.p0(i64 8, ptr %12) #5
  %40 = load ptr, ptr %6, align 8, !tbaa !8
  %41 = load i32, ptr %9, align 4, !tbaa !15
  %42 = call noundef i64 @_ZN11duckdb_zstd22ZSTD_CCtx_setParameterEPNS_11ZSTD_CCtx_sENS_15ZSTD_cParameterEi(ptr noundef %40, i32 noundef 100, i32 noundef %41)
  store i64 %42, ptr %12, align 8, !tbaa !10
  %43 = load i64, ptr %12, align 8, !tbaa !10
  %44 = call noundef i32 @_ZN11duckdb_zstdL11ERR_isErrorEm(i64 noundef %43)
  %45 = icmp ne i32 %44, 0
  br i1 %45, label %46, label %60

46:                                               ; preds = %39
  br label %47

47:                                               ; preds = %46
  br label %48

48:                                               ; preds = %47
  br label %49

49:                                               ; preds = %48
  br label %50

50:                                               ; preds = %49
  br label %51

51:                                               ; preds = %50
  br label %52

52:                                               ; preds = %51
  br label %53

53:                                               ; preds = %52
  br label %54

54:                                               ; preds = %53
  br label %55

55:                                               ; preds = %54
  br label %56

56:                                               ; preds = %55
  br label %57

57:                                               ; preds = %56
  br label %58

58:                                               ; preds = %57
  %59 = load i64, ptr %12, align 8, !tbaa !10
  store i64 %59, ptr %5, align 8
  store i32 1, ptr %11, align 4
  br label %61

60:                                               ; preds = %39
  store i32 0, ptr %11, align 4
  br label %61

61:                                               ; preds = %60, %58
  call void @llvm.lifetime.end.p0(i64 8, ptr %12) #5
  %62 = load i32, ptr %11, align 4
  switch i32 %62, label %94 [
    i32 0, label %63
    i32 1, label %92
  ]

63:                                               ; preds = %61
  br label %64

64:                                               ; preds = %63
  br label %65

65:                                               ; preds = %64
  call void @llvm.lifetime.start.p0(i64 8, ptr %13) #5
  %66 = load ptr, ptr %6, align 8, !tbaa !8
  %67 = load ptr, ptr %7, align 8, !tbaa !4
  %68 = load i64, ptr %8, align 8, !tbaa !10
  %69 = call noundef i64 @_ZN11duckdb_zstd24ZSTD_CCtx_loadDictionaryEPNS_11ZSTD_CCtx_sEPKvm(ptr noundef %66, ptr noundef %67, i64 noundef %68)
  store i64 %69, ptr %13, align 8, !tbaa !10
  %70 = load i64, ptr %13, align 8, !tbaa !10
  %71 = call noundef i32 @_ZN11duckdb_zstdL11ERR_isErrorEm(i64 noundef %70)
  %72 = icmp ne i32 %71, 0
  br i1 %72, label %73, label %87

73:                                               ; preds = %65
  br label %74

74:                                               ; preds = %73
  br label %75

75:                                               ; preds = %74
  br label %76

76:                                               ; preds = %75
  br label %77

77:                                               ; preds = %76
  br label %78

78:                                               ; preds = %77
  br label %79

79:                                               ; preds = %78
  br label %80

80:                                               ; preds = %79
  br label %81

81:                                               ; preds = %80
  br label %82

82:                                               ; preds = %81
  br label %83

83:                                               ; preds = %82
  br label %84

84:                                               ; preds = %83
  br label %85

85:                                               ; preds = %84
  %86 = load i64, ptr %13, align 8, !tbaa !10
  store i64 %86, ptr %5, align 8
  store i32 1, ptr %11, align 4
  br label %88

87:                                               ; preds = %65
  store i32 0, ptr %11, align 4
  br label %88

88:                                               ; preds = %87, %85
  call void @llvm.lifetime.end.p0(i64 8, ptr %13) #5
  %89 = load i32, ptr %11, align 4
  switch i32 %89, label %94 [
    i32 0, label %90
    i32 1, label %92
  ]

90:                                               ; preds = %88
  br label %91

91:                                               ; preds = %90
  store i64 0, ptr %5, align 8
  br label %92

92:                                               ; preds = %91, %88, %61, %35
  %93 = load i64, ptr %5, align 8
  ret i64 %93

94:                                               ; preds = %88, %61, %35
  unreachable
}