; Function Attrs: mustprogress uwtable
define noundef range(i64 -119, 1) i64 @_ZN11duckdb_zstd28ZBUFF_compressInitDictionaryEPNS_11ZSTD_CCtx_sEPKvmi(ptr noundef %0, ptr noundef %1, i64 noundef %2, i32 noundef %3) local_unnamed_addr #0 {
  %5 = tail call noundef i64 @_ZN11duckdb_zstd15ZSTD_CCtx_resetEPNS_11ZSTD_CCtx_sENS_19ZSTD_ResetDirectiveE(ptr noundef %0, i32 noundef 1)
  %6 = icmp ult i64 %5, -119
  br i1 %6, label %7, label %13

7:                                                ; preds = %4
  %8 = tail call noundef i64 @_ZN11duckdb_zstd22ZSTD_CCtx_setParameterEPNS_11ZSTD_CCtx_sENS_15ZSTD_cParameterEi(ptr noundef %0, i32 noundef 100, i32 noundef %3)
  %9 = icmp ult i64 %8, -119
  br i1 %9, label %10, label %13

10:                                               ; preds = %7
  %11 = tail call noundef i64 @_ZN11duckdb_zstd24ZSTD_CCtx_loadDictionaryEPNS_11ZSTD_CCtx_sEPKvm(ptr noundef %0, ptr noundef %1, i64 noundef %2)
  %12 = icmp ult i64 %11, -119
  %spec.select = select i1 %12, i64 0, i64 %11
  br label %13

13:                                               ; preds = %10, %7, %4
  %.1 = phi i64 [ %5, %4 ], [ %8, %7 ], [ %spec.select, %10 ]
  ret i64 %.1
}